LIBRARY
EXPORTS
;
?ERROR_MUST_USE_NEW@common@ncv@@3PEBDEB
?ERROR_INVALID_ARGUMENTS@common@ncv@@3PEBDEB
?ERROR_NOT_IMPLEMENTED@common@ncv@@3PEBDEB
;
?OBJECT_KEY_Y@common@ncv@@3PEBDEB
?OBJECT_KEY_X@common@ncv@@3PEBDEB
?OBJECT_KEY_WIDTH@common@ncv@@3PEBDEB
?OBJECT_KEY_HEIGHT@common@ncv@@3PEBDEB
?OBJECT_KEY_START@common@ncv@@3PEBDEB
?OBJECT_KEY_END@common@ncv@@3PEBDEB
;
?ReadInputArray@common@ncv@@YA?AV_InputArray@cv@@V?$Local@VValue@v8@@@v8@@@Z
?ReadInputOutputArray@common@ncv@@YA?AV_InputOutputArray@cv@@V?$Local@VValue@v8@@@v8@@@Z
?ReadOutputArray@common@ncv@@YA?AV_OutputArray@cv@@V?$Local@VValue@v8@@@v8@@@Z
;
?NewInstance@Scalar@common@ncv@@SA?AV?$Local@VObject@v8@@@v8@@AEBN000@Z
?NewInstance@Scalar@common@ncv@@SA?AV?$Local@VObject@v8@@@v8@@AEBV?$Scalar_@N@cv@@@Z
?RawScalar@Scalar@common@ncv@@SA?AV?$Scalar_@N@cv@@AEBHQEAV?$Local@VValue@v8@@@v8@@@Z
;
?NewInstance@Matrix@common@ncv@@SA?AV?$Local@VObject@v8@@@v8@@VMat@cv@@@Z
;
??0HybridAsyncWorker@common@ncv@@QEAA@XZ
??1HybridAsyncWorker@common@ncv@@UEAA@XZ
?Error@HybridAsyncWorker@common@ncv@@QEBA?AV?$Local@VValue@v8@@@v8@@XZ
?GetResult@HybridAsyncWorker@common@ncv@@UEAA?AV?$Local@VValue@v8@@@v8@@XZ
?HandleErrorCallback@HybridAsyncWorker@common@ncv@@MEAAXXZ
?HandleOKCallback@HybridAsyncWorker@common@ncv@@MEAAXXZ
?HasError@HybridAsyncWorker@common@ncv@@QEBA_NXZ
;
?RawPoint@Point@common@ncv@@SA?AV?$Point_@H@cv@@AEBHQEAV?$Local@VValue@v8@@@v8@@@Z
?NewInstance@Point@common@ncv@@SA?AV?$Local@VObject@v8@@@v8@@AEBV?$Point_@H@cv@@@Z
?NewInstance@Point@common@ncv@@SA?AV?$Local@VObject@v8@@@v8@@AEBH0@Z
;
?RawRect@Rect@common@ncv@@SA?AV?$Rect_@H@cv@@AEBHQEAV?$Local@VValue@v8@@@v8@@@Z
?NewInstance@Rect@common@ncv@@SA?AV?$Local@VObject@v8@@@v8@@AEBV?$Rect_@H@cv@@@Z
;
?RawSize@Size@common@ncv@@SA?AV?$Size_@H@cv@@AEBHQEAV?$Local@VValue@v8@@@v8@@@Z
;
?NewInstance@Size@common@ncv@@SA?AV?$Local@VObject@v8@@@v8@@AEBV?$Size_@H@cv@@@Z
;
?RawMatrix@Matrix@common@ncv@@SA?AVMat@cv@@AEBHQEAV?$Local@VValue@v8@@@v8@@@Z
?NewInstance@Matrix@common@ncv@@SA?AV?$Local@VObject@v8@@@v8@@XZ
?HasInstance@Matrix@common@ncv@@SA_NV?$Local@VValue@v8@@@v8@@@Z
